; ModuleID = '29/657.c'
source_filename = "29/657.c"
target datalayout = "e-m:e-p270:32:32-p271:32:32-p272:64:64-i64:64-f80:128-n8:16:32:64-S128"
target triple = "x86_64-pc-linux-gnu"

@.str = private unnamed_addr constant [3 x i8] c"%d\00", align 1
@.str.1 = private unnamed_addr constant [3 x i8] c"%f\00", align 1
@.str.2 = private unnamed_addr constant [6 x i8] c"%.3f\0A\00", align 1

; Function Attrs: noinline nounwind uwtable
define dso_local i32 @main() #0 {
  %1 = alloca i32, align 4
  %2 = alloca [100 x float], align 16
  %3 = alloca [100 x float], align 16
  %4 = alloca [100 x float], align 16
  %5 = alloca float, align 4
  %6 = alloca i32, align 4
  %7 = alloca i32, align 4
  %8 = alloca i32, align 4
  %9 = alloca i32, align 4
  %10 = alloca i32, align 4
  store i32 0, i32* %1, align 4
  store float 0.000000e+00, float* %5, align 4
  %11 = getelementptr inbounds [100 x float], [100 x float]* %2, i64 0, i64 0
  store float 1.000000e+00, float* %11, align 16
  %12 = getelementptr inbounds [100 x float], [100 x float]* %2, i64 0, i64 1
  store float 2.000000e+00, float* %12, align 4
  store i32 0, i32* %6, align 4
  br label %13

13:                                               ; preds = %31, %0
  %14 = load i32, i32* %6, align 4
  %15 = icmp slt i32 %14, 98
  br i1 %15, label %16, label %34

16:                                               ; preds = %13
  %17 = load i32, i32* %6, align 4
  %18 = sext i32 %17 to i64
  %19 = getelementptr inbounds [100 x float], [100 x float]* %2, i64 0, i64 %18
  %20 = load float, float* %19, align 4
  %21 = load i32, i32* %6, align 4
  %22 = add nsw i32 %21, 1
  %23 = sext i32 %22 to i64
  %24 = getelementptr inbounds [100 x float], [100 x float]* %2, i64 0, i64 %23
  %25 = load float, float* %24, align 4
  %26 = fadd float %20, %25
  %27 = load i32, i32* %6, align 4
  %28 = add nsw i32 %27, 2
  %29 = sext i32 %28 to i64
  %30 = getelementptr inbounds [100 x float], [100 x float]* %2, i64 0, i64 %29
  store float %26, float* %30, align 4
  br label %31

31:                                               ; preds = %16
  %32 = load i32, i32* %6, align 4
  %33 = add nsw i32 %32, 1
  store i32 %33, i32* %6, align 4
  br label %13

34:                                               ; preds = %13
  store i32 0, i32* %7, align 4
  br label %35

35:                                               ; preds = %52, %34
  %36 = load i32, i32* %7, align 4
  %37 = icmp slt i32 %36, 98
  br i1 %37, label %38, label %55

38:                                               ; preds = %35
  %39 = load i32, i32* %7, align 4
  %40 = add nsw i32 %39, 1
  %41 = sext i32 %40 to i64
  %42 = getelementptr inbounds [100 x float], [100 x float]* %2, i64 0, i64 %41
  %43 = load float, float* %42, align 4
  %44 = load i32, i32* %7, align 4
  %45 = sext i32 %44 to i64
  %46 = getelementptr inbounds [100 x float], [100 x float]* %2, i64 0, i64 %45
  %47 = load float, float* %46, align 4
  %48 = fdiv float %43, %47
  %49 = load i32, i32* %7, align 4
  %50 = sext i32 %49 to i64
  %51 = getelementptr inbounds [100 x float], [100 x float]* %3, i64 0, i64 %50
  store float %48, float* %51, align 4
  br label %52

52:                                               ; preds = %38
  %53 = load i32, i32* %7, align 4
  %54 = add nsw i32 %53, 1
  store i32 %54, i32* %7, align 4
  br label %35

55:                                               ; preds = %35
  %56 = call i32 (i8*, ...) @__isoc99_scanf(i8* getelementptr inbounds ([3 x i8], [3 x i8]* @.str, i64 0, i64 0), i32* %8)
  store i32 0, i32* %9, align 4
  br label %57

57:                                               ; preds = %88, %55
  %58 = load i32, i32* %9, align 4
  %59 = load i32, i32* %8, align 4
  %60 = icmp slt i32 %58, %59
  br i1 %60, label %61, label %91

61:                                               ; preds = %57
  %62 = load i32, i32* %9, align 4
  %63 = sext i32 %62 to i64
  %64 = getelementptr inbounds [100 x float], [100 x float]* %4, i64 0, i64 %63
  %65 = call i32 (i8*, ...) @__isoc99_scanf(i8* getelementptr inbounds ([3 x i8], [3 x i8]* @.str.1, i64 0, i64 0), float* %64)
  store i32 0, i32* %10, align 4
  br label %66

66:                                               ; preds = %81, %61
  %67 = load i32, i32* %10, align 4
  %68 = sitofp i32 %67 to float
  %69 = load i32, i32* %9, align 4
  %70 = sext i32 %69 to i64
  %71 = getelementptr inbounds [100 x float], [100 x float]* %4, i64 0, i64 %70
  %72 = load float, float* %71, align 4
  %73 = fcmp olt float %68, %72
  br i1 %73, label %74, label %84

74:                                               ; preds = %66
  %75 = load i32, i32* %10, align 4
  %76 = sext i32 %75 to i64
  %77 = getelementptr inbounds [100 x float], [100 x float]* %3, i64 0, i64 %76
  %78 = load float, float* %77, align 4
  %79 = load float, float* %5, align 4
  %80 = fadd float %79, %78
  store float %80, float* %5, align 4
  br label %81

81:                                               ; preds = %74
  %82 = load i32, i32* %10, align 4
  %83 = add nsw i32 %82, 1
  store i32 %83, i32* %10, align 4
  br label %66

84:                                               ; preds = %66
  %85 = load float, float* %5, align 4
  %86 = fpext float %85 to double
  %87 = call i32 (i8*, ...) @printf(i8* getelementptr inbounds ([6 x i8], [6 x i8]* @.str.2, i64 0, i64 0), double %86)
  store float 0.000000e+00, float* %5, align 4
  br label %88

88:                                               ; preds = %84
  %89 = load i32, i32* %9, align 4
  %90 = add nsw i32 %89, 1
  store i32 %90, i32* %9, align 4
  br label %57

91:                                               ; preds = %57
  ret i32 0
}

declare dso_local i32 @__isoc99_scanf(i8*, ...) #1

declare dso_local i32 @printf(i8*, ...) #1


!llvm.module.flags = !{!0}
!llvm.ident = !{!1}

!0 = !{i32 1, !"wchar_size", i32 4}
!1 = !{!"clang version 10.0.0-4ubuntu1 "}
